; Function Attrs: mustprogress nounwind uwtable
define dso_local void @_ZN12cmWorkerPoolD2Ev(ptr nocapture noundef nonnull align 8 dereferenceable(24) %0) unnamed_addr #2 align 2 personality ptr @__gxx_personality_v0 {
  %2 = getelementptr inbounds i8, ptr %0, i64 16
  %3 = load ptr, ptr %2, align 8
  %.not.i = icmp eq ptr %3, null
  br i1 %.not.i, label %_ZNSt10unique_ptrI20cmWorkerPoolInternalSt14default_deleteIS0_EED2Ev.exit, label %_ZNKSt14default_deleteI20cmWorkerPoolInternalEclEPS0_.exit.i

_ZNKSt14default_deleteI20cmWorkerPoolInternalEclEPS0_.exit.i: ; preds = %1
  tail call void @_ZN20cmWorkerPoolInternalD2Ev(ptr noundef nonnull align 8 dereferenceable(304) %3) #20
  tail call void @_ZdlPv(ptr noundef nonnull %3) #23
  br label %_ZNSt10unique_ptrI20cmWorkerPoolInternalSt14default_deleteIS0_EED2Ev.exit

_ZNSt10unique_ptrI20cmWorkerPoolInternalSt14default_deleteIS0_EED2Ev.exit: ; preds = %1, %_ZNKSt14default_deleteI20cmWorkerPoolInternalEclEPS0_.exit.i
  store ptr null, ptr %2, align 8
  ret void
}